; ModuleID = 'bench/lean4/original/Eq.ll'
source_filename = "bench/lean4/original/Eq.ll"
target datalayout = "e-m:e-p270:32:32-p271:32:32-p272:64:64-i64:64-i128:128-f80:128-n8:16:32:64-S128"
target triple = "x86_64-pc-linux-gnu"

@_G_initialized = internal unnamed_addr global i1 false, align 1

; Function Attrs: nounwind uwtable
define ptr @initialize_Std_Tactic_BVDecide_Bitblast_BVExpr_Circuit_Lemmas_Operations_Eq(i8 noundef zeroext %0, ptr noundef readnone captures(none) %1) local_unnamed_addr #0 {
  %.b8 = load i1, ptr @_G_initialized, align 1
  br i1 %.b8, label %3, label %7

3:                                                ; preds = %2
  tail call void @lean_inc_heartbeat() #3
  %4 = tail call noalias ptr @mi_malloc_small(i64 noundef 24) #3
  %5 = icmp eq ptr %4, null
  br i1 %5, label %6, label %.sink.split

6:                                                ; preds = %3
  tail call void @lean_internal_panic_out_of_memory() #4
  unreachable

7:                                                ; preds = %2
  store i1 true, ptr @_G_initialized, align 1
  %8 = tail call ptr @initialize_Std_Tactic_BVDecide_Bitblast_BVExpr_Circuit_Lemmas_Basic(i8 noundef zeroext %0, ptr noundef nonnull inttoptr (i64 1 to ptr)) #3
  %9 = getelementptr i8, ptr %8, i64 4
  %.val = load i32, ptr %9, align 4
  %.mask.i = and i32 %.val, -16777216
  %10 = icmp eq i32 %.mask.i, 16777216
  br i1 %10, label %34, label %11

11:                                               ; preds = %7
  %12 = load i32, ptr %8, align 4, !tbaa !4
  %13 = icmp sgt i32 %12, 1
  br i1 %13, label %14, label %16, !prof !9

14:                                               ; preds = %11
  %15 = add nsw i32 %12, -1
  store i32 %15, ptr %8, align 4, !tbaa !4
  br label %lean_dec_ref.exit

16:                                               ; preds = %11
  %.not.i = icmp eq i32 %12, 0
  br i1 %.not.i, label %lean_dec_ref.exit, label %17

17:                                               ; preds = %16
  tail call void @lean_dec_ref_cold(ptr noundef nonnull %8) #3
  br label %lean_dec_ref.exit

lean_dec_ref.exit:                                ; preds = %14, %16, %17
  %18 = tail call ptr @initialize_Std_Tactic_BVDecide_Bitblast_BVExpr_Circuit_Impl_Operations_Eq(i8 noundef zeroext %0, ptr noundef nonnull inttoptr (i64 1 to ptr)) #3
  %19 = getelementptr i8, ptr %18, i64 4
  %.val11 = load i32, ptr %19, align 4
  %.mask.i12 = and i32 %.val11, -16777216
  %20 = icmp eq i32 %.mask.i12, 16777216
  br i1 %20, label %34, label %21

21:                                               ; preds = %lean_dec_ref.exit
  %22 = load i32, ptr %18, align 4, !tbaa !4
  %23 = icmp sgt i32 %22, 1
  br i1 %23, label %24, label %26, !prof !9

24:                                               ; preds = %21
  %25 = add nsw i32 %22, -1
  store i32 %25, ptr %18, align 4, !tbaa !4
  br label %lean_dec_ref.exit10

26:                                               ; preds = %21
  %.not.i9 = icmp eq i32 %22, 0
  br i1 %.not.i9, label %lean_dec_ref.exit10, label %27

27:                                               ; preds = %26
  tail call void @lean_dec_ref_cold(ptr noundef nonnull %18) #3
  br label %lean_dec_ref.exit10

lean_dec_ref.exit10:                              ; preds = %24, %26, %27
  tail call void @lean_inc_heartbeat() #3
  %28 = tail call noalias ptr @mi_malloc_small(i64 noundef 24) #3
  %29 = icmp eq ptr %28, null
  br i1 %29, label %30, label %.sink.split

30:                                               ; preds = %lean_dec_ref.exit10
  tail call void @lean_internal_panic_out_of_memory() #4
  unreachable

.sink.split:                                      ; preds = %lean_dec_ref.exit10, %3
  %.sink17 = phi ptr [ %4, %3 ], [ %28, %lean_dec_ref.exit10 ]
  %31 = getelementptr inbounds nuw i8, ptr %.sink17, i64 4
  store i32 1, ptr %.sink17, align 4, !tbaa !4
  store i32 131096, ptr %31, align 4
  %32 = getelementptr inbounds nuw i8, ptr %.sink17, i64 8
  store ptr inttoptr (i64 1 to ptr), ptr %32, align 8, !tbaa !10
  %33 = getelementptr inbounds nuw i8, ptr %.sink17, i64 16
  store ptr inttoptr (i64 1 to ptr), ptr %33, align 8, !tbaa !10
  br label %34

34:                                               ; preds = %.sink.split, %lean_dec_ref.exit, %7
  %.0 = phi ptr [ %8, %7 ], [ %18, %lean_dec_ref.exit ], [ %.sink17, %.sink.split ]
  ret ptr %.0
}

declare ptr @initialize_Std_Tactic_BVDecide_Bitblast_BVExpr_Circuit_Lemmas_Basic(i8 noundef zeroext, ptr noundef) local_unnamed_addr #1

declare ptr @initialize_Std_Tactic_BVDecide_Bitblast_BVExpr_Circuit_Impl_Operations_Eq(i8 noundef zeroext, ptr noundef) local_unnamed_addr #1

declare void @lean_inc_heartbeat() local_unnamed_addr #1

declare noalias ptr @mi_malloc_small(i64 noundef) local_unnamed_addr #1

; Function Attrs: noreturn
declare void @lean_internal_panic_out_of_memory() local_unnamed_addr #2

declare void @lean_dec_ref_cold(ptr noundef) local_unnamed_addr #1


!llvm.module.flags = !{!0, !1, !2, !3}

!0 = !{i32 1, !"wchar_size", i32 4}
!1 = !{i32 4, !"probe-stack", !"inline-asm"}
!2 = !{i32 8, !"PIC Level", i32 2}
!3 = !{i32 7, !"uwtable", i32 2}
!4 = !{!5, !6, i64 0}
!5 = !{!"", !6, i64 0, !6, i64 4, !6, i64 6, !6, i64 7}
!6 = !{!"int", !7, i64 0}
!7 = !{!"omnipotent char", !8, i64 0}
!8 = !{!"Simple C/C++ TBAA"}
!9 = !{!"branch_weights", !"expected", i32 2000, i32 1}
!10 = !{!11, !11, i64 0}
!11 = !{!"any pointer", !7, i64 0}
